; Function Attrs: mustprogress uwtable
define hidden void @_ZN4lean10update_maxERKNS_5levelES2_S2_(ptr dead_on_unwind noalias writable sret(%"class.lean::level") align 8 %0, ptr noundef nonnull readonly align 8 captures(none) dereferenceable(8) %1, ptr noundef nonnull align 8 dereferenceable(8) %2, ptr noundef nonnull align 8 dereferenceable(8) %3) local_unnamed_addr #0 {
  %5 = load ptr, ptr %1, align 8, !tbaa !3
  %6 = getelementptr inbounds nuw i8, ptr %5, i64 8
  %7 = load ptr, ptr %6, align 8, !tbaa !3
  %8 = load ptr, ptr %2, align 8, !tbaa !3
  %9 = icmp eq ptr %7, %8
  br i1 %9, label %10, label %24

10:                                               ; preds = %4
  %11 = getelementptr inbounds nuw i8, ptr %5, i64 16
  %12 = load ptr, ptr %11, align 8, !tbaa !3
  %13 = load ptr, ptr %3, align 8, !tbaa !3
  %14 = icmp eq ptr %12, %13
  br i1 %14, label %15, label %24

15:                                               ; preds = %10
  store ptr %5, ptr %0, align 8, !tbaa !3
  %16 = ptrtoint ptr %5 to i64
  %17 = and i64 %16, 1
  %.not.i.i.i = icmp eq i64 %17, 0
  br i1 %.not.i.i.i, label %18, label %_ZN4lean5levelC2ERKS0_.exit

18:                                               ; preds = %15
  %.val.i.i.i.i = load i32, ptr %5, align 4, !tbaa !8
  %19 = icmp sgt i32 %.val.i.i.i.i, 0
  br i1 %19, label %20, label %22, !prof !11

20:                                               ; preds = %18
  %21 = add nuw nsw i32 %.val.i.i.i.i, 1
  store i32 %21, ptr %5, align 4, !tbaa !8
  br label %_ZN4lean5levelC2ERKS0_.exit

22:                                               ; preds = %18
  %.not.i.i.i.i = icmp eq i32 %.val.i.i.i.i, 0
  br i1 %.not.i.i.i.i, label %_ZN4lean5levelC2ERKS0_.exit, label %23

23:                                               ; preds = %22
  tail call void @lean_inc_ref_cold(ptr noundef nonnull %5)
  br label %_ZN4lean5levelC2ERKS0_.exit

24:                                               ; preds = %10, %4
  %25 = ptrtoint ptr %5 to i64
  %26 = and i64 %25, 1
  %.not.i.i.i10 = icmp eq i64 %26, 0
  br i1 %.not.i.i.i10, label %_ZN4lean6is_maxERKNS_5levelE.exit, label %_ZN4lean6is_maxERKNS_5levelE.exit.thread

_ZN4lean6is_maxERKNS_5levelE.exit:                ; preds = %24
  %27 = getelementptr i8, ptr %5, i64 4
  %.val.i.i.i = load i32, ptr %27, align 4
  %.mask.i.i = and i32 %.val.i.i.i, -16777216
  %28 = icmp eq i32 %.mask.i.i, 33554432
  br i1 %28, label %29, label %_ZN4lean6is_maxERKNS_5levelE.exit.thread

29:                                               ; preds = %_ZN4lean6is_maxERKNS_5levelE.exit
  tail call void @_ZN4lean6mk_maxERKNS_5levelES2_(ptr dead_on_unwind writable sret(%"class.lean::level") align 8 %0, ptr noundef nonnull align 8 dereferenceable(8) %2, ptr noundef nonnull align 8 dereferenceable(8) %3)
  br label %_ZN4lean5levelC2ERKS0_.exit

_ZN4lean6is_maxERKNS_5levelE.exit.thread:         ; preds = %24, %_ZN4lean6is_maxERKNS_5levelE.exit
  tail call void @_ZN4lean7mk_imaxERKNS_5levelES2_(ptr dead_on_unwind writable sret(%"class.lean::level") align 8 %0, ptr noundef nonnull align 8 dereferenceable(8) %2, ptr noundef nonnull align 8 dereferenceable(8) %3)
  br label %_ZN4lean5levelC2ERKS0_.exit

_ZN4lean5levelC2ERKS0_.exit:                      ; preds = %23, %22, %20, %15, %_ZN4lean6is_maxERKNS_5levelE.exit.thread, %29
  ret void
}